; Function Attrs: nounwind uwtable
define hidden void @Wayland_UpdateImplicitGrabSerial(ptr noundef %0, i32 noundef %1) local_unnamed_addr #0 {
  %3 = getelementptr inbounds nuw i8, ptr %0, i64 56
  %4 = load i32, ptr %3, align 8
  %5 = icmp ugt i32 %1, %4
  br i1 %5, label %6, label %13

6:                                                ; preds = %2
  store i32 %1, ptr %3, align 8
  %7 = load ptr, ptr %0, align 8
  %8 = getelementptr inbounds nuw i8, ptr %7, i64 264
  store ptr %0, ptr %8, align 8
  %9 = getelementptr inbounds nuw i8, ptr %0, i64 16
  %10 = load ptr, ptr %9, align 8
  tail call void @Wayland_data_device_set_serial(ptr noundef %10, i32 noundef %1) #12
  %11 = getelementptr inbounds nuw i8, ptr %0, i64 24
  %12 = load ptr, ptr %11, align 8
  tail call void @Wayland_primary_selection_device_set_serial(ptr noundef %12, i32 noundef %1) #12
  br label %13

13:                                               ; preds = %6, %2
  ret void
}